target datalayout = "e-m:e-p270:32:32-p271:32:32-p272:64:64-i64:64-i128:128-f80:128-n8:16:32:64-S128"
target triple = "x86_64-pc-linux-gnu"

; Function Attrs: mustprogress nounwind uwtable
define void @llama_adapter_lora_free(ptr noundef %0) #0 {
  %2 = alloca ptr, align 8
  store ptr %0, ptr %2, align 8, !tbaa !97
  %3 = load ptr, ptr %2, align 8, !tbaa !97
  %4 = icmp eq ptr %3, null
  br i1 %4, label %6, label %5

5:                                                ; preds = %1
  call void @_ZN18llama_adapter_loraD2Ev(ptr noundef nonnull align 8 dereferenceable(108) %3) #17
  call void @_ZdlPvm(ptr noundef %3, i64 noundef 112) #22
  br label %6

6:                                                ; preds = %5, %1
  ret void
}